; Function Attrs: mustprogress nounwind uwtable
define hidden void @_ZN10ZPageTable7replaceEP5ZPageS1_(ptr nocapture noundef nonnull readonly align 8 dereferenceable(16) %0, ptr nocapture noundef readonly %1, ptr noundef %2) local_unnamed_addr #0 align 2 {
  %4 = getelementptr inbounds i8, ptr %1, i64 16
  %5 = load i64, ptr %4, align 8
  %6 = getelementptr inbounds i8, ptr %1, i64 24
  %7 = load i64, ptr %6, align 8
  %8 = sub i64 %7, %5
  tail call void asm sideeffect "", "~{memory},~{dirflag},~{fpsr},~{flags}"() #7, !srcloc !6
  %9 = lshr i64 %5, 21
  %10 = lshr i64 %8, 21
  %11 = add nuw nsw i64 %10, %9
  %.not.i.i = icmp ult i64 %8, 2097152
  br i1 %.not.i.i, label %_ZN11ZGranuleMapIP5ZPageE11release_putE7zoffsetmS1_.exit, label %.lr.ph.i.i

.lr.ph.i.i:                                       ; preds = %3
  %12 = getelementptr inbounds i8, ptr %0, i64 8
  br label %13

13:                                               ; preds = %13, %.lr.ph.i.i
  %.09.i.i = phi i64 [ %9, %.lr.ph.i.i ], [ %16, %13 ]
  %14 = load ptr, ptr %12, align 8
  %15 = getelementptr inbounds ptr, ptr %14, i64 %.09.i.i
  store volatile ptr %2, ptr %15, align 8
  %16 = add nuw nsw i64 %.09.i.i, 1
  %17 = icmp ult i64 %16, %11
  br i1 %17, label %13, label %_ZN11ZGranuleMapIP5ZPageE11release_putE7zoffsetmS1_.exit, !llvm.loop !7

_ZN11ZGranuleMapIP5ZPageE11release_putE7zoffsetmS1_.exit: ; preds = %13, %3
  %18 = getelementptr inbounds i8, ptr %2, i64 1
  %19 = load i8, ptr %18, align 1
  %20 = icmp eq i8 %19, 1
  br i1 %20, label %21, label %23

21:                                               ; preds = %_ZN11ZGranuleMapIP5ZPageE11release_putE7zoffsetmS1_.exit
  %22 = load ptr, ptr @_ZN11ZGeneration6_youngE, align 8
  tail call void @_ZN16ZGenerationYoung20register_with_remsetEP5ZPage(ptr noundef nonnull align 64 dereferenceable(6720) %22, ptr noundef nonnull %2) #7
  br label %23

23:                                               ; preds = %21, %_ZN11ZGranuleMapIP5ZPageE11release_putE7zoffsetmS1_.exit
  ret void
}